target datalayout = "e-m:e-p270:32:32-p271:32:32-p272:64:64-i64:64-i128:128-f80:128-n8:16:32:64-S128"
target triple = "x86_64-pc-linux-gnu"

%struct.dt_imageio_module_format_t = type { %struct.dt_action_t, ptr, ptr, ptr, ptr, ptr, ptr, ptr, ptr, ptr, ptr, ptr, ptr, ptr, ptr, ptr, ptr, ptr, ptr, ptr, ptr, [128 x i8], ptr, ptr, ptr, i32, i32 }
%struct.dt_action_t = type { i32, ptr, ptr, ptr, ptr, ptr }
%struct.dt_imageio_png_gui_t = type { ptr, ptr }

@.str.8 = private unnamed_addr constant [31 x i8] c"plugins/imageio/format/png/bpp\00", align 1
@.str.9 = private unnamed_addr constant [39 x i8] c"plugins/imageio/format/png/compression\00", align 1
@gui_init.texts = internal global [3 x ptr] [ptr @.str.13, ptr @.str.14, ptr null], align 16
@.str.15 = private unnamed_addr constant [10 x i8] c"bit depth\00", align 1
@.str.16 = private unnamed_addr constant [12 x i8] c"compression\00", align 1
@.str.17 = private unnamed_addr constant [14 x i8] c"value-changed\00", align 1
@.str.18 = private unnamed_addr constant [122 x i8] c"generated/home/dtcxzyw/WorkSpace/Projects/compilers/llvm-opt-benchmark/bench/darktable/darktable/src/imageio/format/png.c\00", align 1
@__FUNCTION__.gui_init = private unnamed_addr constant [9 x i8] c"gui_init\00", align 1

; Function Attrs: nounwind uwtable
define void @gui_init(ptr noundef %0) #0 {
  %2 = alloca ptr, align 8
  %3 = alloca ptr, align 8
  %4 = alloca i32, align 4
  %5 = alloca i32, align 4
  %6 = alloca [3 x ptr], align 8
  store ptr %0, ptr %2, align 8, !tbaa !88
  call void @llvm.lifetime.start.p0(i64 8, ptr %3) #13
  %7 = call noalias ptr @malloc(i64 noundef 16) #15
  store ptr %7, ptr %3, align 8, !tbaa !136
  %8 = load ptr, ptr %3, align 8, !tbaa !136
  %9 = load ptr, ptr %2, align 8, !tbaa !88
  %10 = getelementptr inbounds nuw %struct.dt_imageio_module_format_t, ptr %9, i32 0, i32 24
  store ptr %8, ptr %10, align 8, !tbaa !135
  call void @llvm.lifetime.start.p0(i64 4, ptr %4) #13
  %11 = call i32 @dt_conf_get_int(ptr noundef @.str.8)
  store i32 %11, ptr %4, align 4, !tbaa !14
  call void @llvm.lifetime.start.p0(i64 4, ptr %5) #13
  store i32 5, ptr %5, align 4, !tbaa !14
  %12 = call i32 @dt_conf_key_exists(ptr noundef @.str.9)
  %13 = icmp ne i32 %12, 0
  br i1 %13, label %14, label %16

14:                                               ; preds = %1
  %15 = call i32 @dt_conf_get_int(ptr noundef @.str.9)
  store i32 %15, ptr %5, align 4, !tbaa !14
  br label %16

16:                                               ; preds = %14, %1
  %17 = load ptr, ptr %2, align 8, !tbaa !88
  %18 = icmp ne ptr %17, null
  br i1 %18, label %19, label %22

19:                                               ; preds = %16
  %20 = load ptr, ptr %2, align 8, !tbaa !88
  %21 = getelementptr inbounds nuw %struct.dt_imageio_module_format_t, ptr %20, i32 0, i32 0
  br label %23

22:                                               ; preds = %16
  br label %23

23:                                               ; preds = %22, %19
  %24 = phi ptr [ %21, %19 ], [ null, %22 ]
  %25 = load ptr, ptr %2, align 8, !tbaa !88
  %26 = call ptr @dt_bauhaus_combobox_new_full(ptr noundef %24, ptr noundef null, ptr noundef @.str.15, ptr noundef null, i32 noundef 0, ptr noundef @bit_depth_changed, ptr noundef %25, ptr noundef @gui_init.texts)
  %27 = load ptr, ptr %3, align 8, !tbaa !136
  %28 = getelementptr inbounds nuw %struct.dt_imageio_png_gui_t, ptr %27, i32 0, i32 0
  store ptr %26, ptr %28, align 8, !tbaa !138
  %29 = load i32, ptr %4, align 4, !tbaa !14
  %30 = icmp eq i32 %29, 16
  br i1 %30, label %31, label %35

31:                                               ; preds = %23
  %32 = load ptr, ptr %3, align 8, !tbaa !136
  %33 = getelementptr inbounds nuw %struct.dt_imageio_png_gui_t, ptr %32, i32 0, i32 0
  %34 = load ptr, ptr %33, align 8, !tbaa !138
  call void @dt_bauhaus_combobox_set(ptr noundef %34, i32 noundef 1)
  br label %35

35:                                               ; preds = %31, %23
  %36 = load ptr, ptr %2, align 8, !tbaa !88
  %37 = call i32 @dt_confgen_get_int(ptr noundef @.str.9, i32 noundef 1)
  %38 = sitofp i32 %37 to float
  %39 = call i32 @dt_confgen_get_int(ptr noundef @.str.9, i32 noundef 2)
  %40 = sitofp i32 %39 to float
  %41 = call i32 @dt_confgen_get_int(ptr noundef @.str.9, i32 noundef 0)
  %42 = sitofp i32 %41 to float
  %43 = call ptr @dt_bauhaus_slider_new_with_range(ptr noundef %36, float noundef %38, float noundef %40, float noundef 1.000000e+00, float noundef %42, i32 noundef 0)
  %44 = load ptr, ptr %3, align 8, !tbaa !136
  %45 = getelementptr inbounds nuw %struct.dt_imageio_png_gui_t, ptr %44, i32 0, i32 1
  store ptr %43, ptr %45, align 8, !tbaa !140
  %46 = load ptr, ptr %3, align 8, !tbaa !136
  %47 = getelementptr inbounds nuw %struct.dt_imageio_png_gui_t, ptr %46, i32 0, i32 1
  %48 = load ptr, ptr %47, align 8, !tbaa !140
  %49 = call ptr @dt_bauhaus_widget_set_label(ptr noundef %48, ptr noundef null, ptr noundef @.str.16)
  %50 = load ptr, ptr %3, align 8, !tbaa !136
  %51 = getelementptr inbounds nuw %struct.dt_imageio_png_gui_t, ptr %50, i32 0, i32 1
  %52 = load ptr, ptr %51, align 8, !tbaa !140
  %53 = load i32, ptr %5, align 4, !tbaa !14
  %54 = sitofp i32 %53 to float
  call void @dt_bauhaus_slider_set(ptr noundef %52, float noundef %54)
  %55 = load ptr, ptr %3, align 8, !tbaa !136
  %56 = getelementptr inbounds nuw %struct.dt_imageio_png_gui_t, ptr %55, i32 0, i32 1
  %57 = load ptr, ptr %56, align 8, !tbaa !140
  %58 = call ptr @g_type_check_instance_cast(ptr noundef %57, i64 noundef 80)
  %59 = call i64 @g_signal_connect_data(ptr noundef %58, ptr noundef @.str.17, ptr noundef @compression_level_changed, ptr noundef null, ptr noundef null, i32 noundef 0)
  %60 = call ptr @gtk_box_new(i32 noundef 1, i32 noundef 0)
  %61 = call i64 @gtk_box_get_type() #18
  %62 = call ptr @g_type_check_instance_cast(ptr noundef %60, i64 noundef %61)
  %63 = load ptr, ptr %3, align 8, !tbaa !136
  %64 = getelementptr inbounds nuw %struct.dt_imageio_png_gui_t, ptr %63, i32 0, i32 0
  %65 = load ptr, ptr %64, align 8, !tbaa !138
  store ptr %65, ptr %6, align 8, !tbaa !13
  %66 = getelementptr inbounds ptr, ptr %6, i64 1
  %67 = load ptr, ptr %3, align 8, !tbaa !136
  %68 = getelementptr inbounds nuw %struct.dt_imageio_png_gui_t, ptr %67, i32 0, i32 1
  %69 = load ptr, ptr %68, align 8, !tbaa !140
  store ptr %69, ptr %66, align 8, !tbaa !13
  %70 = getelementptr inbounds ptr, ptr %6, i64 2
  store ptr inttoptr (i64 -1 to ptr), ptr %70, align 8, !tbaa !13
  %71 = getelementptr inbounds [3 x ptr], ptr %6, i64 0, i64 0
  %72 = call ptr @dt_gui_box_add(ptr noundef @.str.18, i32 noundef 703, ptr noundef @__FUNCTION__.gui_init, ptr noundef %62, ptr noundef %71)
  %73 = load ptr, ptr %2, align 8, !tbaa !88
  %74 = getelementptr inbounds nuw %struct.dt_imageio_module_format_t, ptr %73, i32 0, i32 23
  store ptr %72, ptr %74, align 8, !tbaa !141
  call void @llvm.lifetime.end.p0(i64 4, ptr %5) #13
  call void @llvm.lifetime.end.p0(i64 4, ptr %4) #13
  call void @llvm.lifetime.end.p0(i64 8, ptr %3) #13
  ret void
}