; Function Attrs: nounwind uwtable
define void @gui_init(ptr noundef initializes((352, 360)) %0) local_unnamed_addr #1 {
  %2 = alloca [3 x ptr], align 8
  %3 = tail call noalias dereferenceable_or_null(16) ptr @malloc(i64 noundef 16) #22
  %4 = getelementptr inbounds nuw i8, ptr %0, i64 352
  store ptr %3, ptr %4, align 8, !tbaa !67
  %5 = tail call i32 @dt_conf_get_int(ptr noundef nonnull @.str.8) #20
  %6 = tail call i32 @dt_conf_key_exists(ptr noundef nonnull @.str.9) #20
  %.not = icmp eq i32 %6, 0
  br i1 %.not, label %10, label %7

7:                                                ; preds = %1
  %8 = tail call i32 @dt_conf_get_int(ptr noundef nonnull @.str.9) #20
  %9 = sitofp i32 %8 to float
  br label %10

10:                                               ; preds = %7, %1
  %.0 = phi float [ %9, %7 ], [ 5.000000e+00, %1 ]
  %11 = tail call ptr @dt_bauhaus_combobox_new_full(ptr noundef nonnull %0, ptr noundef null, ptr noundef nonnull @.str.15, ptr noundef null, i32 noundef 0, ptr noundef nonnull @bit_depth_changed, ptr noundef nonnull %0, ptr noundef nonnull @gui_init.texts) #20
  store ptr %11, ptr %3, align 8, !tbaa !68
  %12 = icmp eq i32 %5, 16
  br i1 %12, label %13, label %14

13:                                               ; preds = %10
  tail call void @dt_bauhaus_combobox_set(ptr noundef %11, i32 noundef 1) #20
  br label %14

14:                                               ; preds = %13, %10
  %15 = tail call i32 @dt_confgen_get_int(ptr noundef nonnull @.str.9, i32 noundef 1) #20
  %16 = sitofp i32 %15 to float
  %17 = tail call i32 @dt_confgen_get_int(ptr noundef nonnull @.str.9, i32 noundef 2) #20
  %18 = sitofp i32 %17 to float
  %19 = tail call i32 @dt_confgen_get_int(ptr noundef nonnull @.str.9, i32 noundef 0) #20
  %20 = sitofp i32 %19 to float
  %21 = tail call ptr @dt_bauhaus_slider_new_with_range(ptr noundef nonnull %0, float noundef %16, float noundef %18, float noundef 1.000000e+00, float noundef %20, i32 noundef 0) #20
  %22 = getelementptr inbounds nuw i8, ptr %3, i64 8
  store ptr %21, ptr %22, align 8, !tbaa !70
  %23 = tail call ptr @dt_bauhaus_widget_set_label(ptr noundef %21, ptr noundef null, ptr noundef nonnull @.str.16) #20
  %24 = load ptr, ptr %22, align 8, !tbaa !70
  tail call void @dt_bauhaus_slider_set(ptr noundef %24, float noundef %.0) #20
  %25 = load ptr, ptr %22, align 8, !tbaa !70
  %26 = tail call ptr @g_type_check_instance_cast(ptr noundef %25, i64 noundef 80) #20
  %27 = tail call i64 @g_signal_connect_data(ptr noundef %26, ptr noundef nonnull @.str.17, ptr noundef nonnull @compression_level_changed, ptr noundef null, ptr noundef null, i32 noundef 0) #20
  %28 = tail call ptr @gtk_box_new(i32 noundef 1, i32 noundef 0) #20
  %29 = tail call i64 @gtk_box_get_type() #25
  %30 = tail call ptr @g_type_check_instance_cast(ptr noundef %28, i64 noundef %29) #20
  %31 = load ptr, ptr %3, align 8, !tbaa !68
  store ptr %31, ptr %2, align 8, !tbaa !71
  %32 = getelementptr inbounds nuw i8, ptr %2, i64 8
  %33 = load ptr, ptr %22, align 8, !tbaa !70
  store ptr %33, ptr %32, align 8, !tbaa !71
  %34 = getelementptr inbounds nuw i8, ptr %2, i64 16
  store ptr inttoptr (i64 -1 to ptr), ptr %34, align 8, !tbaa !71
  %35 = call ptr @dt_gui_box_add(ptr noundef nonnull @.str.18, i32 noundef 703, ptr noundef nonnull @__FUNCTION__.gui_init, ptr noundef %30, ptr noundef nonnull %2) #20
  %36 = getelementptr inbounds nuw i8, ptr %0, i64 344
  store ptr %35, ptr %36, align 8, !tbaa !72
  ret void
}